target datalayout = "e-m:e-p270:32:32-p271:32:32-p272:64:64-i64:64-i128:128-f80:128-n8:16:32:64-S128"
target triple = "x86_64-pc-linux-gnu"

%"class.std::__cxx11::basic_string" = type { %"struct.std::__cxx11::basic_string<char>::_Alloc_hider", i64, %union.anon }
%"struct.std::__cxx11::basic_string<char>::_Alloc_hider" = type { ptr }
%union.anon = type { i64, [8 x i8] }
%"class.duckdb::BaseSecret" = type <{ ptr, %"class.duckdb::vector", %"class.std::__cxx11::basic_string", %"class.std::__cxx11::basic_string", %"class.std::__cxx11::basic_string", i8, [7 x i8] }>
%"class.duckdb::vector" = type { %"class.std::vector" }
%"class.std::vector" = type { %"struct.std::_Vector_base" }
%"struct.std::_Vector_base" = type { %"struct.std::_Vector_base<std::__cxx11::basic_string<char>, std::allocator<std::__cxx11::basic_string<char>>>::_Vector_impl" }
%"struct.std::_Vector_base<std::__cxx11::basic_string<char>, std::allocator<std::__cxx11::basic_string<char>>>::_Vector_impl" = type { %"struct.std::_Vector_base<std::__cxx11::basic_string<char>, std::allocator<std::__cxx11::basic_string<char>>>::_Vector_impl_data" }
%"struct.std::_Vector_base<std::__cxx11::basic_string<char>, std::allocator<std::__cxx11::basic_string<char>>>::_Vector_impl_data" = type { ptr, ptr, ptr }
%class.anon = type { ptr }
%"class.duckdb::Serializer::List" = type { ptr }

@.str = private unnamed_addr constant [5 x i8] c"type\00", align 1
@.str.1 = private unnamed_addr constant [9 x i8] c"provider\00", align 1
@.str.2 = private unnamed_addr constant [5 x i8] c"name\00", align 1
@.str.3 = private unnamed_addr constant [6 x i8] c"scope\00", align 1

; Function Attrs: mustprogress uwtable
define linkonce_odr void @_ZN6duckdb10Serializer4List12WriteElementINSt7__cxx1112basic_stringIcSt11char_traitsIcESaIcEEEEEvRKT_(ptr noundef nonnull align 8 dereferenceable(8) %0, ptr noundef nonnull align 8 dereferenceable(32) %1) #4 comdat align 2 {
  %3 = alloca ptr, align 8
  %4 = alloca ptr, align 8
  store ptr %0, ptr %3, align 8, !tbaa !2117
  store ptr %1, ptr %4, align 8, !tbaa !8
  %5 = load ptr, ptr %3, align 8
  %6 = getelementptr inbounds nuw %"class.duckdb::Serializer::List", ptr %5, i32 0, i32 0
  %7 = load ptr, ptr %6, align 8, !tbaa !2119
  %8 = load ptr, ptr %4, align 8, !tbaa !8
  %9 = load ptr, ptr %7, align 8, !tbaa !31
  %10 = getelementptr inbounds ptr, ptr %9, i64 28
  %11 = load ptr, ptr %10, align 8
  call void %11(ptr noundef nonnull align 8 dereferenceable(680) %7, ptr noundef nonnull align 8 dereferenceable(32) %8)
  ret void
}

; Function Attrs: inlinehint mustprogress uwtable
define internal void @"_ZZNK6duckdb10BaseSecret19SerializeBaseSecretERNS_10SerializerEENK3$_0clERNS1_4ListEm"(ptr noundef nonnull align 8 dereferenceable(8) %0, ptr noundef nonnull align 8 dereferenceable(8) %1, i64 noundef %2) #8 align 2 {
  %4 = alloca ptr, align 8
  %5 = alloca ptr, align 8
  %6 = alloca i64, align 8
  store ptr %0, ptr %4, align 8, !tbaa !800
  store ptr %1, ptr %5, align 8, !tbaa !2117
  store i64 %2, ptr %6, align 8, !tbaa !10
  %7 = load ptr, ptr %4, align 8
  %8 = getelementptr inbounds nuw %class.anon, ptr %7, i32 0, i32 0
  %9 = load ptr, ptr %8, align 8, !tbaa !26
  %10 = load ptr, ptr %5, align 8, !tbaa !2117
  %11 = getelementptr inbounds nuw %"class.duckdb::BaseSecret", ptr %9, i32 0, i32 1
  %12 = load i64, ptr %6, align 8, !tbaa !10
  %13 = call noundef nonnull align 8 dereferenceable(32) ptr @_ZNK6duckdb6vectorINSt7__cxx1112basic_stringIcSt11char_traitsIcESaIcEEELb1EEixEm(ptr noundef nonnull align 8 dereferenceable(24) %11, i64 noundef %12)
  call void @_ZN6duckdb10Serializer4List12WriteElementINSt7__cxx1112basic_stringIcSt11char_traitsIcESaIcEEEEEvRKT_(ptr noundef nonnull align 8 dereferenceable(8) %10, ptr noundef nonnull align 8 dereferenceable(32) %13)
  ret void
}

; Function Attrs: mustprogress nounwind uwtable
define linkonce_odr void @_ZN6duckdb10Serializer4ListC2ERS0_(ptr noundef nonnull align 8 dereferenceable(8) %0, ptr noundef nonnull align 8 dereferenceable(680) %1) unnamed_addr #6 comdat align 2 {
  %3 = alloca ptr, align 8
  %4 = alloca ptr, align 8
  store ptr %0, ptr %3, align 8, !tbaa !2117
  store ptr %1, ptr %4, align 8, !tbaa !24
  %5 = load ptr, ptr %3, align 8
  %6 = getelementptr inbounds nuw %"class.duckdb::Serializer::List", ptr %5, i32 0, i32 0
  %7 = load ptr, ptr %4, align 8, !tbaa !24
  store ptr %7, ptr %6, align 8, !tbaa !24
  ret void
}

; Function Attrs: mustprogress uwtable
define internal void @"_ZN6duckdb10Serializer9WriteListIZNKS_10BaseSecret19SerializeBaseSecretERS0_E3$_0EEvtPKcmT_"(ptr noundef nonnull align 8 dereferenceable(680) %0, i16 noundef zeroext %1, ptr noundef %2, i64 noundef %3, ptr %4) #4 align 2 {
  %6 = alloca %class.anon, align 8
  %7 = alloca ptr, align 8
  %8 = alloca i16, align 2
  %9 = alloca ptr, align 8
  %10 = alloca i64, align 8
  %11 = alloca %"class.duckdb::Serializer::List", align 8
  %12 = alloca i64, align 8
  %13 = getelementptr inbounds nuw %class.anon, ptr %6, i32 0, i32 0
  store ptr %4, ptr %13, align 8
  store ptr %0, ptr %7, align 8, !tbaa !24
  store i16 %1, ptr %8, align 2, !tbaa !28
  store ptr %2, ptr %9, align 8, !tbaa !30
  store i64 %3, ptr %10, align 8, !tbaa !10
  %14 = load ptr, ptr %7, align 8
  %15 = load i16, ptr %8, align 2, !tbaa !28
  %16 = load ptr, ptr %9, align 8, !tbaa !30
  %17 = load ptr, ptr %14, align 8, !tbaa !31
  %18 = getelementptr inbounds ptr, ptr %17, i64 2
  %19 = load ptr, ptr %18, align 8
  call void %19(ptr noundef nonnull align 8 dereferenceable(680) %14, i16 noundef zeroext %15, ptr noundef %16)
  %20 = load i64, ptr %10, align 8, !tbaa !10
  %21 = load ptr, ptr %14, align 8, !tbaa !31
  %22 = getelementptr inbounds ptr, ptr %21, i64 8
  %23 = load ptr, ptr %22, align 8
  call void %23(ptr noundef nonnull align 8 dereferenceable(680) %14, i64 noundef %20)
  call void @llvm.lifetime.start.p0(i64 8, ptr %11) #3
  call void @_ZN6duckdb10Serializer4ListC2ERS0_(ptr noundef nonnull align 8 dereferenceable(8) %11, ptr noundef nonnull align 8 dereferenceable(680) %14)
  call void @llvm.lifetime.start.p0(i64 8, ptr %12) #3
  store i64 0, ptr %12, align 8, !tbaa !10
  br label %24

24:                                               ; preds = %31, %5
  %25 = load i64, ptr %12, align 8, !tbaa !10
  %26 = load i64, ptr %10, align 8, !tbaa !10
  %27 = icmp ult i64 %25, %26
  br i1 %27, label %29, label %28

28:                                               ; preds = %24
  call void @llvm.lifetime.end.p0(i64 8, ptr %12) #3
  br label %34

29:                                               ; preds = %24
  %30 = load i64, ptr %12, align 8, !tbaa !10
  call void @"_ZZNK6duckdb10BaseSecret19SerializeBaseSecretERNS_10SerializerEENK3$_0clERNS1_4ListEm"(ptr noundef nonnull align 8 dereferenceable(8) %6, ptr noundef nonnull align 8 dereferenceable(8) %11, i64 noundef %30)
  br label %31

31:                                               ; preds = %29
  %32 = load i64, ptr %12, align 8, !tbaa !10
  %33 = add i64 %32, 1
  store i64 %33, ptr %12, align 8, !tbaa !10
  br label %24, !llvm.loop !33

34:                                               ; preds = %28
  %35 = load ptr, ptr %14, align 8, !tbaa !31
  %36 = getelementptr inbounds ptr, ptr %35, i64 9
  %37 = load ptr, ptr %36, align 8
  call void %37(ptr noundef nonnull align 8 dereferenceable(680) %14)
  %38 = load ptr, ptr %14, align 8, !tbaa !31
  %39 = getelementptr inbounds ptr, ptr %38, i64 3
  %40 = load ptr, ptr %39, align 8
  call void %40(ptr noundef nonnull align 8 dereferenceable(680) %14)
  call void @llvm.lifetime.end.p0(i64 8, ptr %11) #3
  ret void
}

; Function Attrs: mustprogress nounwind uwtable
define linkonce_odr noundef i64 @_ZNKSt6vectorINSt7__cxx1112basic_stringIcSt11char_traitsIcESaIcEEESaIS5_EE4sizeEv(ptr noundef nonnull align 8 dereferenceable(24) %0) #6 comdat align 2 {
  %2 = alloca ptr, align 8
  store ptr %0, ptr %2, align 8, !tbaa !14
  %3 = load ptr, ptr %2, align 8
  %4 = getelementptr inbounds nuw %"struct.std::_Vector_base", ptr %3, i32 0, i32 0
  %5 = getelementptr inbounds nuw %"struct.std::_Vector_base<std::__cxx11::basic_string<char>, std::allocator<std::__cxx11::basic_string<char>>>::_Vector_impl_data", ptr %4, i32 0, i32 1
  %6 = load ptr, ptr %5, align 8, !tbaa !35
  %7 = getelementptr inbounds nuw %"struct.std::_Vector_base", ptr %3, i32 0, i32 0
  %8 = getelementptr inbounds nuw %"struct.std::_Vector_base<std::__cxx11::basic_string<char>, std::allocator<std::__cxx11::basic_string<char>>>::_Vector_impl_data", ptr %7, i32 0, i32 0
  %9 = load ptr, ptr %8, align 8, !tbaa !37
  %10 = ptrtoint ptr %6 to i64
  %11 = ptrtoint ptr %9 to i64
  %12 = sub i64 %10, %11
  %13 = sdiv exact i64 %12, 32
  ret i64 %13
}

; Function Attrs: mustprogress uwtable
define linkonce_odr void @_ZN6duckdb10Serializer13WritePropertyINSt7__cxx1112basic_stringIcSt11char_traitsIcESaIcEEEEEvtPKcRKT_(ptr noundef nonnull align 8 dereferenceable(680) %0, i16 noundef zeroext %1, ptr noundef %2, ptr noundef nonnull align 8 dereferenceable(32) %3) #4 comdat align 2 {
  %5 = alloca ptr, align 8
  %6 = alloca i16, align 2
  %7 = alloca ptr, align 8
  %8 = alloca ptr, align 8
  store ptr %0, ptr %5, align 8, !tbaa !24
  store i16 %1, ptr %6, align 2, !tbaa !28
  store ptr %2, ptr %7, align 8, !tbaa !30
  store ptr %3, ptr %8, align 8, !tbaa !8
  %9 = load ptr, ptr %5, align 8
  %10 = load i16, ptr %6, align 2, !tbaa !28
  %11 = load ptr, ptr %7, align 8, !tbaa !30
  %12 = load ptr, ptr %9, align 8, !tbaa !31
  %13 = getelementptr inbounds ptr, ptr %12, i64 2
  %14 = load ptr, ptr %13, align 8
  call void %14(ptr noundef nonnull align 8 dereferenceable(680) %9, i16 noundef zeroext %10, ptr noundef %11)
  %15 = load ptr, ptr %8, align 8, !tbaa !8
  %16 = load ptr, ptr %9, align 8, !tbaa !31
  %17 = getelementptr inbounds ptr, ptr %16, i64 28
  %18 = load ptr, ptr %17, align 8
  call void %18(ptr noundef nonnull align 8 dereferenceable(680) %9, ptr noundef nonnull align 8 dereferenceable(32) %15)
  %19 = load ptr, ptr %9, align 8, !tbaa !31
  %20 = getelementptr inbounds ptr, ptr %19, i64 3
  %21 = load ptr, ptr %20, align 8
  call void %21(ptr noundef nonnull align 8 dereferenceable(680) %9)
  ret void
}

; Function Attrs: mustprogress uwtable
define void @_ZNK6duckdb10BaseSecret19SerializeBaseSecretERNS_10SerializerE(ptr noundef nonnull align 8 dereferenceable(129) %0, ptr noundef nonnull align 8 dereferenceable(680) %1) unnamed_addr #4 align 2 {
  %3 = alloca ptr, align 8
  %4 = alloca ptr, align 8
  %5 = alloca %class.anon, align 8
  store ptr %0, ptr %3, align 8, !tbaa !3
  store ptr %1, ptr %4, align 8, !tbaa !24
  %6 = load ptr, ptr %3, align 8
  %7 = load ptr, ptr %4, align 8, !tbaa !24
  %8 = getelementptr inbounds nuw %"class.duckdb::BaseSecret", ptr %6, i32 0, i32 2
  call void @_ZN6duckdb10Serializer13WritePropertyINSt7__cxx1112basic_stringIcSt11char_traitsIcESaIcEEEEEvtPKcRKT_(ptr noundef nonnull align 8 dereferenceable(680) %7, i16 noundef zeroext 100, ptr noundef @.str, ptr noundef nonnull align 8 dereferenceable(32) %8)
  %9 = load ptr, ptr %4, align 8, !tbaa !24
  %10 = getelementptr inbounds nuw %"class.duckdb::BaseSecret", ptr %6, i32 0, i32 3
  call void @_ZN6duckdb10Serializer13WritePropertyINSt7__cxx1112basic_stringIcSt11char_traitsIcESaIcEEEEEvtPKcRKT_(ptr noundef nonnull align 8 dereferenceable(680) %9, i16 noundef zeroext 101, ptr noundef @.str.1, ptr noundef nonnull align 8 dereferenceable(32) %10)
  %11 = load ptr, ptr %4, align 8, !tbaa !24
  %12 = getelementptr inbounds nuw %"class.duckdb::BaseSecret", ptr %6, i32 0, i32 4
  call void @_ZN6duckdb10Serializer13WritePropertyINSt7__cxx1112basic_stringIcSt11char_traitsIcESaIcEEEEEvtPKcRKT_(ptr noundef nonnull align 8 dereferenceable(680) %11, i16 noundef zeroext 102, ptr noundef @.str.2, ptr noundef nonnull align 8 dereferenceable(32) %12)
  %13 = load ptr, ptr %4, align 8, !tbaa !24
  %14 = getelementptr inbounds nuw %"class.duckdb::BaseSecret", ptr %6, i32 0, i32 1
  %15 = call noundef i64 @_ZNKSt6vectorINSt7__cxx1112basic_stringIcSt11char_traitsIcESaIcEEESaIS5_EE4sizeEv(ptr noundef nonnull align 8 dereferenceable(24) %14) #3
  %16 = getelementptr inbounds nuw %class.anon, ptr %5, i32 0, i32 0
  store ptr %6, ptr %16, align 8, !tbaa !26
  %17 = getelementptr inbounds nuw %class.anon, ptr %5, i32 0, i32 0
  %18 = load ptr, ptr %17, align 8
  call void @"_ZN6duckdb10Serializer9WriteListIZNKS_10BaseSecret19SerializeBaseSecretERS0_E3$_0EEvtPKcmT_"(ptr noundef nonnull align 8 dereferenceable(680) %13, i16 noundef zeroext 103, ptr noundef @.str.3, i64 noundef %15, ptr %18)
  ret void
}