; Function Attrs: mustprogress uwtable
define void @_ZNK6duckdb10BaseSecret19SerializeBaseSecretERNS_10SerializerE(ptr noundef nonnull align 8 dereferenceable(129) %0, ptr noundef nonnull align 8 dereferenceable(680) %1) unnamed_addr #3 align 2 {
  %3 = getelementptr inbounds nuw i8, ptr %0, i64 32
  %4 = load ptr, ptr %1, align 8, !tbaa !17
  %5 = getelementptr inbounds nuw i8, ptr %4, i64 16
  %6 = load ptr, ptr %5, align 8
  tail call void %6(ptr noundef nonnull align 8 dereferenceable(680) %1, i16 noundef zeroext 100, ptr noundef nonnull @.str)
  %7 = load ptr, ptr %1, align 8, !tbaa !17
  %8 = getelementptr inbounds nuw i8, ptr %7, i64 224
  %9 = load ptr, ptr %8, align 8
  tail call void %9(ptr noundef nonnull align 8 dereferenceable(680) %1, ptr noundef nonnull align 8 dereferenceable(32) %3)
  %10 = load ptr, ptr %1, align 8, !tbaa !17
  %11 = getelementptr inbounds nuw i8, ptr %10, i64 24
  %12 = load ptr, ptr %11, align 8
  tail call void %12(ptr noundef nonnull align 8 dereferenceable(680) %1)
  %13 = getelementptr inbounds nuw i8, ptr %0, i64 64
  %14 = load ptr, ptr %1, align 8, !tbaa !17
  %15 = getelementptr inbounds nuw i8, ptr %14, i64 16
  %16 = load ptr, ptr %15, align 8
  tail call void %16(ptr noundef nonnull align 8 dereferenceable(680) %1, i16 noundef zeroext 101, ptr noundef nonnull @.str.1)
  %17 = load ptr, ptr %1, align 8, !tbaa !17
  %18 = getelementptr inbounds nuw i8, ptr %17, i64 224
  %19 = load ptr, ptr %18, align 8
  tail call void %19(ptr noundef nonnull align 8 dereferenceable(680) %1, ptr noundef nonnull align 8 dereferenceable(32) %13)
  %20 = load ptr, ptr %1, align 8, !tbaa !17
  %21 = getelementptr inbounds nuw i8, ptr %20, i64 24
  %22 = load ptr, ptr %21, align 8
  tail call void %22(ptr noundef nonnull align 8 dereferenceable(680) %1)
  %23 = getelementptr inbounds nuw i8, ptr %0, i64 96
  %24 = load ptr, ptr %1, align 8, !tbaa !17
  %25 = getelementptr inbounds nuw i8, ptr %24, i64 16
  %26 = load ptr, ptr %25, align 8
  tail call void %26(ptr noundef nonnull align 8 dereferenceable(680) %1, i16 noundef zeroext 102, ptr noundef nonnull @.str.2)
  %27 = load ptr, ptr %1, align 8, !tbaa !17
  %28 = getelementptr inbounds nuw i8, ptr %27, i64 224
  %29 = load ptr, ptr %28, align 8
  tail call void %29(ptr noundef nonnull align 8 dereferenceable(680) %1, ptr noundef nonnull align 8 dereferenceable(32) %23)
  %30 = load ptr, ptr %1, align 8, !tbaa !17
  %31 = getelementptr inbounds nuw i8, ptr %30, i64 24
  %32 = load ptr, ptr %31, align 8
  tail call void %32(ptr noundef nonnull align 8 dereferenceable(680) %1)
  %33 = getelementptr inbounds nuw i8, ptr %0, i64 8
  %34 = getelementptr inbounds nuw i8, ptr %0, i64 16
  %35 = load ptr, ptr %34, align 8, !tbaa !19
  %36 = load ptr, ptr %33, align 8, !tbaa !21
  %37 = ptrtoint ptr %35 to i64
  %38 = ptrtoint ptr %36 to i64
  %39 = sub i64 %37, %38
  %40 = ashr exact i64 %39, 5
  %41 = load ptr, ptr %1, align 8, !tbaa !17
  %42 = getelementptr inbounds nuw i8, ptr %41, i64 16
  %43 = load ptr, ptr %42, align 8
  tail call void %43(ptr noundef nonnull align 8 dereferenceable(680) %1, i16 noundef zeroext 103, ptr noundef nonnull @.str.3)
  %44 = load ptr, ptr %1, align 8, !tbaa !17
  %45 = getelementptr inbounds nuw i8, ptr %44, i64 64
  %46 = load ptr, ptr %45, align 8
  tail call void %46(ptr noundef nonnull align 8 dereferenceable(680) %1, i64 noundef %40)
  %.not.i = icmp eq ptr %35, %36
  br i1 %.not.i, label %"_ZN6duckdb10Serializer9WriteListIZNKS_10BaseSecret19SerializeBaseSecretERS0_E3$_0EEvtPKcmT_.exit", label %.lr.ph.i

.lr.ph.i:                                         ; preds = %2, %.lr.ph.i
  %.02.i = phi i64 [ %51, %.lr.ph.i ], [ 0, %2 ]
  %47 = tail call noundef nonnull align 8 dereferenceable(32) ptr @_ZNK6duckdb6vectorINSt7__cxx1112basic_stringIcSt11char_traitsIcESaIcEEELb1EEixEm(ptr noundef nonnull align 8 dereferenceable(24) %33, i64 noundef %.02.i)
  %48 = load ptr, ptr %1, align 8, !tbaa !17
  %49 = getelementptr inbounds nuw i8, ptr %48, i64 224
  %50 = load ptr, ptr %49, align 8
  tail call void %50(ptr noundef nonnull align 8 dereferenceable(680) %1, ptr noundef nonnull align 8 dereferenceable(32) %47)
  %51 = add nuw i64 %.02.i, 1
  %exitcond.not.i = icmp eq i64 %51, %40
  br i1 %exitcond.not.i, label %"_ZN6duckdb10Serializer9WriteListIZNKS_10BaseSecret19SerializeBaseSecretERS0_E3$_0EEvtPKcmT_.exit", label %.lr.ph.i, !llvm.loop !22

"_ZN6duckdb10Serializer9WriteListIZNKS_10BaseSecret19SerializeBaseSecretERS0_E3$_0EEvtPKcmT_.exit": ; preds = %.lr.ph.i, %2
  %52 = load ptr, ptr %1, align 8, !tbaa !17
  %53 = getelementptr inbounds nuw i8, ptr %52, i64 72
  %54 = load ptr, ptr %53, align 8
  tail call void %54(ptr noundef nonnull align 8 dereferenceable(680) %1)
  %55 = load ptr, ptr %1, align 8, !tbaa !17
  %56 = getelementptr inbounds nuw i8, ptr %55, i64 24
  %57 = load ptr, ptr %56, align 8
  tail call void %57(ptr noundef nonnull align 8 dereferenceable(680) %1)
  ret void
}